target datalayout = "e-m:e-p270:32:32-p271:32:32-p272:64:64-i64:64-i128:128-f80:128-n8:16:32:64-S128"
target triple = "x86_64-pc-linux-gnu"

%"class.std::__cxx11::basic_string" = type { %"struct.std::__cxx11::basic_string<char>::_Alloc_hider", i64, %union.anon }
%"struct.std::__cxx11::basic_string<char>::_Alloc_hider" = type { ptr }
%union.anon = type { i64, [8 x i8] }
%struct.pj_ctx = type <{ %"class.std::__cxx11::basic_string", i32, i32, i8, i8, [6 x i8], ptr, ptr, ptr, i32, i8, [3 x i8], i32, [4 x i8], %"class.std::__cxx11::basic_string", %"class.std::vector", ptr, ptr, ptr, %"class.std::map", i8, [7 x i8], %struct.projFileApiCallbackAndData, %"class.std::__cxx11::basic_string", %"class.std::__cxx11::basic_string", i8, [7 x i8], %"class.std::__cxx11::basic_string", %struct.projNetworkCallbacksAndData, %"class.std::__cxx11::basic_string", i8, [7 x i8], %struct.projGridChunkCache, i32, i32, i32, [4 x i8] }>
%"class.std::vector" = type { %"struct.std::_Vector_base" }
%"struct.std::_Vector_base" = type { %"struct.std::_Vector_base<std::__cxx11::basic_string<char>, std::allocator<std::__cxx11::basic_string<char>>>::_Vector_impl" }
%"struct.std::_Vector_base<std::__cxx11::basic_string<char>, std::allocator<std::__cxx11::basic_string<char>>>::_Vector_impl" = type { %"struct.std::_Vector_base<std::__cxx11::basic_string<char>, std::allocator<std::__cxx11::basic_string<char>>>::_Vector_impl_data" }
%"struct.std::_Vector_base<std::__cxx11::basic_string<char>, std::allocator<std::__cxx11::basic_string<char>>>::_Vector_impl_data" = type { ptr, ptr, ptr }
%"class.std::map" = type { %"class.std::_Rb_tree" }
%"class.std::_Rb_tree" = type { %"struct.std::_Rb_tree<std::__cxx11::basic_string<char>, std::pair<const std::__cxx11::basic_string<char>, std::__cxx11::basic_string<char>>, std::_Select1st<std::pair<const std::__cxx11::basic_string<char>, std::__cxx11::basic_string<char>>>, std::less<std::__cxx11::basic_string<char>>>::_Rb_tree_impl" }
%"struct.std::_Rb_tree<std::__cxx11::basic_string<char>, std::pair<const std::__cxx11::basic_string<char>, std::__cxx11::basic_string<char>>, std::_Select1st<std::pair<const std::__cxx11::basic_string<char>, std::__cxx11::basic_string<char>>>, std::less<std::__cxx11::basic_string<char>>>::_Rb_tree_impl" = type { [8 x i8], %"struct.std::_Rb_tree_header" }
%"struct.std::_Rb_tree_header" = type { %"struct.std::_Rb_tree_node_base", i64 }
%"struct.std::_Rb_tree_node_base" = type { i32, ptr, ptr, ptr }
%struct.projFileApiCallbackAndData = type { ptr, ptr, ptr, ptr, ptr, ptr, ptr, ptr, ptr, ptr, ptr }
%struct.projNetworkCallbacksAndData = type { i8, ptr, ptr, ptr, ptr, ptr }
%struct.projGridChunkCache = type <{ i8, [7 x i8], %"class.std::__cxx11::basic_string", i64, i32, [4 x i8] }>
%"struct.osgeo::proj::FileProperties" = type { i64, i64, %"class.std::__cxx11::basic_string", %"class.std::__cxx11::basic_string" }
%"class.osgeo::proj::NetworkFile" = type <{ %"class.osgeo::proj::File.base", [7 x i8], ptr, %"class.std::__cxx11::basic_string", ptr, i64, i64, i64, %"struct.osgeo::proj::FileProperties", ptr, i8, [7 x i8] }>
%"class.osgeo::proj::File.base" = type <{ ptr, %"class.std::__cxx11::basic_string", %"class.std::__cxx11::basic_string", i8 }>

@.str.61 = private unnamed_addr constant [97 x i8] c"Networking close callback has changed following context reassignment ! This is highly suspicious\00", align 1

; Function Attrs: mustprogress uwtable
define hidden void @_ZN5osgeo4proj11NetworkFile16reassign_contextEP6pj_ctx(ptr noundef nonnull align 8 dereferenceable(241) %0, ptr noundef %1) unnamed_addr #5 align 2 {
  %3 = alloca ptr, align 8
  %4 = alloca ptr, align 8
  store ptr %0, ptr %3, align 8, !tbaa !177
  store ptr %1, ptr %4, align 8, !tbaa !10
  %5 = load ptr, ptr %3, align 8
  %6 = load ptr, ptr %4, align 8, !tbaa !10
  %7 = getelementptr inbounds nuw %"class.osgeo::proj::NetworkFile", ptr %5, i32 0, i32 2
  store ptr %6, ptr %7, align 8, !tbaa !181
  %8 = getelementptr inbounds nuw %"class.osgeo::proj::NetworkFile", ptr %5, i32 0, i32 9
  %9 = load ptr, ptr %8, align 8, !tbaa !188
  %10 = getelementptr inbounds nuw %"class.osgeo::proj::NetworkFile", ptr %5, i32 0, i32 2
  %11 = load ptr, ptr %10, align 8, !tbaa !181
  %12 = getelementptr inbounds nuw %struct.pj_ctx, ptr %11, i32 0, i32 28
  %13 = getelementptr inbounds nuw %struct.projNetworkCallbacksAndData, ptr %12, i32 0, i32 2
  %14 = load ptr, ptr %13, align 8, !tbaa !172
  %15 = icmp ne ptr %9, %14
  br i1 %15, label %16, label %19

16:                                               ; preds = %2
  %17 = getelementptr inbounds nuw %"class.osgeo::proj::NetworkFile", ptr %5, i32 0, i32 2
  %18 = load ptr, ptr %17, align 8, !tbaa !181
  call void (ptr, i32, ptr, ...) @_Z6pj_logP6pj_ctxiPKcz(ptr noundef %18, i32 noundef 1, ptr noundef @.str.61)
  br label %19

19:                                               ; preds = %16, %2
  ret void
}