; Function Attrs: mustprogress uwtable
define hidden void @_ZN5osgeo4proj11NetworkFile16reassign_contextEP6pj_ctx(ptr noundef nonnull align 8 captures(none) dereferenceable(241) initializes((80, 88)) %0, ptr noundef %1) unnamed_addr #3 align 2 {
  %3 = getelementptr inbounds nuw i8, ptr %0, i64 80
  store ptr %1, ptr %3, align 8, !tbaa !195
  %4 = getelementptr inbounds nuw i8, ptr %0, i64 232
  %5 = load ptr, ptr %4, align 8, !tbaa !203
  %6 = getelementptr inbounds nuw i8, ptr %1, i64 432
  %7 = load ptr, ptr %6, align 8, !tbaa !192
  %.not = icmp eq ptr %5, %7
  br i1 %.not, label %9, label %8

8:                                                ; preds = %2
  tail call void (ptr, i32, ptr, ...) @_Z6pj_logP6pj_ctxiPKcz(ptr noundef nonnull %1, i32 noundef 1, ptr noundef nonnull @.str.61)
  br label %9

9:                                                ; preds = %8, %2
  ret void
}